target datalayout = "e-m:e-p270:32:32-p271:32:32-p272:64:64-i64:64-i128:128-f80:128-n8:16:32:64-S128"
target triple = "x86_64-pc-linux-gnu"

%"struct.std::_Rb_tree_header" = type { %"struct.std::_Rb_tree_node_base", i64 }
%"struct.std::_Rb_tree_node_base" = type { i32, ptr, ptr, ptr }
%struct.llama_kv_cache = type { i8, i8, i8, i8, i8, i32, i32, i32, i32, i32, i32, %"class.std::vector.29", %"class.std::vector.34", %"class.std::vector.34", %"class.std::vector.39", %"class.std::vector.44" }
%"class.std::vector.29" = type { %"struct.std::_Vector_base.30" }
%"struct.std::_Vector_base.30" = type { %"struct.std::_Vector_base<llama_kv_cell, std::allocator<llama_kv_cell>>::_Vector_impl" }
%"struct.std::_Vector_base<llama_kv_cell, std::allocator<llama_kv_cell>>::_Vector_impl" = type { %"struct.std::_Vector_base<llama_kv_cell, std::allocator<llama_kv_cell>>::_Vector_impl_data" }
%"struct.std::_Vector_base<llama_kv_cell, std::allocator<llama_kv_cell>>::_Vector_impl_data" = type { ptr, ptr, ptr }
%"class.std::vector.34" = type { %"struct.std::_Vector_base.35" }
%"struct.std::_Vector_base.35" = type { %"struct.std::_Vector_base<ggml_tensor *, std::allocator<ggml_tensor *>>::_Vector_impl" }
%"struct.std::_Vector_base<ggml_tensor *, std::allocator<ggml_tensor *>>::_Vector_impl" = type { %"struct.std::_Vector_base<ggml_tensor *, std::allocator<ggml_tensor *>>::_Vector_impl_data" }
%"struct.std::_Vector_base<ggml_tensor *, std::allocator<ggml_tensor *>>::_Vector_impl_data" = type { ptr, ptr, ptr }
%"class.std::vector.39" = type { %"struct.std::_Vector_base.40" }
%"struct.std::_Vector_base.40" = type { %"struct.std::_Vector_base<std::unique_ptr<ggml_context, ggml_context_deleter>, std::allocator<std::unique_ptr<ggml_context, ggml_context_deleter>>>::_Vector_impl" }
%"struct.std::_Vector_base<std::unique_ptr<ggml_context, ggml_context_deleter>, std::allocator<std::unique_ptr<ggml_context, ggml_context_deleter>>>::_Vector_impl" = type { %"struct.std::_Vector_base<std::unique_ptr<ggml_context, ggml_context_deleter>, std::allocator<std::unique_ptr<ggml_context, ggml_context_deleter>>>::_Vector_impl_data" }
%"struct.std::_Vector_base<std::unique_ptr<ggml_context, ggml_context_deleter>, std::allocator<std::unique_ptr<ggml_context, ggml_context_deleter>>>::_Vector_impl_data" = type { ptr, ptr, ptr }
%"class.std::vector.44" = type { %"struct.std::_Vector_base.45" }
%"struct.std::_Vector_base.45" = type { %"struct.std::_Vector_base<std::unique_ptr<ggml_backend_buffer, ggml_backend_buffer_deleter>, std::allocator<std::unique_ptr<ggml_backend_buffer, ggml_backend_buffer_deleter>>>::_Vector_impl" }
%"struct.std::_Vector_base<std::unique_ptr<ggml_backend_buffer, ggml_backend_buffer_deleter>, std::allocator<std::unique_ptr<ggml_backend_buffer, ggml_backend_buffer_deleter>>>::_Vector_impl" = type { %"struct.std::_Vector_base<std::unique_ptr<ggml_backend_buffer, ggml_backend_buffer_deleter>, std::allocator<std::unique_ptr<ggml_backend_buffer, ggml_backend_buffer_deleter>>>::_Vector_impl_data" }
%"struct.std::_Vector_base<std::unique_ptr<ggml_backend_buffer, ggml_backend_buffer_deleter>, std::allocator<std::unique_ptr<ggml_backend_buffer, ggml_backend_buffer_deleter>>>::_Vector_impl_data" = type { ptr, ptr, ptr }
%struct.llama_kv_cell = type { i32, i32, i32, i32, %"class.std::set" }
%"class.std::set" = type { %"class.std::_Rb_tree.62" }
%"class.std::_Rb_tree.62" = type { %"struct.std::_Rb_tree<int, int, std::_Identity<int>, std::less<int>>::_Rb_tree_impl" }
%"struct.std::_Rb_tree<int, int, std::_Identity<int>, std::less<int>>::_Rb_tree_impl" = type { [8 x i8], %"struct.std::_Rb_tree_header" }

; Function Attrs: mustprogress nounwind uwtable
define linkonce_odr noundef i64 @_ZNKSt8_Rb_treeIiiSt9_IdentityIiESt4lessIiESaIiEE4sizeEv(ptr noundef nonnull align 8 dereferenceable(48) %0) #3 comdat align 2 {
  %2 = alloca ptr, align 8
  store ptr %0, ptr %2, align 8, !tbaa !361
  %3 = load ptr, ptr %2, align 8
  %4 = getelementptr inbounds nuw %"class.std::_Rb_tree.62", ptr %3, i32 0, i32 0
  %5 = getelementptr inbounds i8, ptr %4, i64 8
  %6 = getelementptr inbounds nuw %"struct.std::_Rb_tree_header", ptr %5, i32 0, i32 1
  %7 = load i64, ptr %6, align 8, !tbaa !267
  ret i64 %7
}

; Function Attrs: mustprogress nounwind uwtable
define linkonce_odr noundef i64 @_ZNKSt3setIiSt4lessIiESaIiEE4sizeEv(ptr noundef nonnull align 8 dereferenceable(48) %0) #3 comdat align 2 {
  %2 = alloca ptr, align 8
  store ptr %0, ptr %2, align 8, !tbaa !196
  %3 = load ptr, ptr %2, align 8
  %4 = getelementptr inbounds nuw %"class.std::set", ptr %3, i32 0, i32 0
  %5 = call noundef i64 @_ZNKSt8_Rb_treeIiiSt9_IdentityIiESt4lessIiESaIiEE4sizeEv(ptr noundef nonnull align 8 dereferenceable(48) %4) #17
  ret i64 %5
}

; Function Attrs: mustprogress nounwind uwtable
define linkonce_odr noundef nonnull align 8 dereferenceable(64) ptr @_ZNKSt6vectorI13llama_kv_cellSaIS0_EEixEm(ptr noundef nonnull align 8 dereferenceable(24) %0, i64 noundef %1) #3 comdat align 2 {
  %3 = alloca ptr, align 8
  %4 = alloca i64, align 8
  store ptr %0, ptr %3, align 8, !tbaa !137
  store i64 %1, ptr %4, align 8, !tbaa !140
  %5 = load ptr, ptr %3, align 8
  %6 = getelementptr inbounds nuw %"struct.std::_Vector_base.30", ptr %5, i32 0, i32 0
  %7 = getelementptr inbounds nuw %"struct.std::_Vector_base<llama_kv_cell, std::allocator<llama_kv_cell>>::_Vector_impl_data", ptr %6, i32 0, i32 0
  %8 = load ptr, ptr %7, align 8, !tbaa !139
  %9 = load i64, ptr %4, align 8, !tbaa !140
  %10 = getelementptr inbounds nuw %struct.llama_kv_cell, ptr %8, i64 %9
  ret ptr %10
}

; Function Attrs: mustprogress nounwind uwtable
define noundef i32 @_Z30llama_get_kv_cache_token_countRK14llama_kv_cache(ptr noundef nonnull align 8 dereferenceable(152) %0) #3 {
  %2 = alloca ptr, align 8
  %3 = alloca i32, align 4
  %4 = alloca i32, align 4
  store ptr %0, ptr %2, align 8, !tbaa !22
  call void @llvm.lifetime.start.p0(i64 4, ptr %3) #17
  store i32 0, ptr %3, align 4, !tbaa !28
  call void @llvm.lifetime.start.p0(i64 4, ptr %4) #17
  store i32 0, ptr %4, align 4, !tbaa !28
  br label %5

5:                                                ; preds = %24, %1
  %6 = load i32, ptr %4, align 4, !tbaa !28
  %7 = load ptr, ptr %2, align 8, !tbaa !22
  %8 = getelementptr inbounds nuw %struct.llama_kv_cache, ptr %7, i32 0, i32 6
  %9 = load i32, ptr %8, align 4, !tbaa !115
  %10 = icmp ult i32 %6, %9
  br i1 %10, label %12, label %11

11:                                               ; preds = %5
  call void @llvm.lifetime.end.p0(i64 4, ptr %4) #17
  br label %27

12:                                               ; preds = %5
  %13 = load ptr, ptr %2, align 8, !tbaa !22
  %14 = getelementptr inbounds nuw %struct.llama_kv_cache, ptr %13, i32 0, i32 11
  %15 = load i32, ptr %4, align 4, !tbaa !28
  %16 = zext i32 %15 to i64
  %17 = call noundef nonnull align 8 dereferenceable(64) ptr @_ZNKSt6vectorI13llama_kv_cellSaIS0_EEixEm(ptr noundef nonnull align 8 dereferenceable(24) %14, i64 noundef %16) #17
  %18 = getelementptr inbounds nuw %struct.llama_kv_cell, ptr %17, i32 0, i32 4
  %19 = call noundef i64 @_ZNKSt3setIiSt4lessIiESaIiEE4sizeEv(ptr noundef nonnull align 8 dereferenceable(48) %18) #17
  %20 = load i32, ptr %3, align 4, !tbaa !28
  %21 = sext i32 %20 to i64
  %22 = add i64 %21, %19
  %23 = trunc i64 %22 to i32
  store i32 %23, ptr %3, align 4, !tbaa !28
  br label %24

24:                                               ; preds = %12
  %25 = load i32, ptr %4, align 4, !tbaa !28
  %26 = add i32 %25, 1
  store i32 %26, ptr %4, align 4, !tbaa !28
  br label %5, !llvm.loop !228

27:                                               ; preds = %11
  %28 = load i32, ptr %3, align 4, !tbaa !28
  call void @llvm.lifetime.end.p0(i64 4, ptr %3) #17
  ret i32 %28
}