; Function Attrs: mustprogress nofree norecurse nosync nounwind willreturn memory(read, inaccessiblemem: none) uwtable
define noundef i32 @_Z30llama_get_kv_cache_token_countRK14llama_kv_cache(ptr noundef nonnull readonly align 8 captures(none) dereferenceable(152) %0) local_unnamed_addr #7 {
  %2 = getelementptr inbounds nuw i8, ptr %0, i64 12
  %3 = load i32, ptr %2, align 4, !tbaa !50
  %.not = icmp eq i32 %3, 0
  br i1 %.not, label %._crit_edge, label %.lr.ph

.lr.ph:                                           ; preds = %1
  %4 = getelementptr inbounds nuw i8, ptr %0, i64 32
  %5 = load ptr, ptr %4, align 8, !tbaa !54
  %wide.trip.count = zext i32 %3 to i64
  br label %6

._crit_edge:                                      ; preds = %6, %1
  %.06.lcssa = phi i32 [ 0, %1 ], [ %10, %6 ]
  ret i32 %.06.lcssa

6:                                                ; preds = %.lr.ph, %6
  %indvars.iv = phi i64 [ 0, %.lr.ph ], [ %indvars.iv.next, %6 ]
  %.067 = phi i32 [ 0, %.lr.ph ], [ %10, %6 ]
  %7 = getelementptr inbounds nuw %struct.llama_kv_cell, ptr %5, i64 %indvars.iv, i32 4, i32 0, i32 0, i32 1, i32 1
  %8 = load i64, ptr %7, align 8, !tbaa !67
  %9 = trunc i64 %8 to i32
  %10 = add i32 %.067, %9
  %indvars.iv.next = add nuw nsw i64 %indvars.iv, 1
  %exitcond.not = icmp eq i64 %indvars.iv.next, %wide.trip.count
  br i1 %exitcond.not, label %._crit_edge, label %6, !llvm.loop !164
}